TN:
SF:/home/huvalk/CLionProjects/TECHNOPARK/C_CPP/IZ_2/tests_gtest.cpp
FN:19,_ZN13MyEnvironmentC2Ev
FN:21,_ZN13MyEnvironmentD2Ev
FN:21,_ZN13MyEnvironmentD0Ev
FN:24,_ZN13MyEnvironment5SetUpEv
FN:30,_ZN13MyEnvironment8TearDownEv
FN:42,_ZN23Message_toDictElem_TestC2Ev
FN:42,_ZN23Message_toDictElem_TestD0Ev
FN:42,_ZN23Message_toDictElem_Test8TestBodyEv
FN:42,_ZN23Message_toDictElem_TestD2Ev
FN:117,main
FN:121,_Z41__static_initialization_and_destruction_0ii
FN:121,_GLOBAL__sub_I__ZN13MyEnvironment7libraryE
FNDA:1,_ZN13MyEnvironmentC2Ev
FNDA:1,_ZN13MyEnvironmentD0Ev
FNDA:1,_ZN13MyEnvironmentD2Ev
FNDA:1,_ZN13MyEnvironment5SetUpEv
FNDA:1,_ZN13MyEnvironment8TearDownEv
FNDA:1,_ZN23Message_toDictElem_TestD0Ev
FNDA:1,_ZN23Message_toDictElem_TestD2Ev
FNDA:1,_ZN23Message_toDictElem_Test8TestBodyEv
FNDA:1,_ZN23Message_toDictElem_TestC2Ev
FNDA:1,main
FNDA:1,_GLOBAL__sub_I__ZN13MyEnvironment7libraryE
FNDA:1,_Z41__static_initialization_and_destruction_0ii
FNF:12
FNH:12
DA:19,1
DA:21,2
DA:24,1
DA:25,1
DA:26,1
DA:27,1
DA:30,1
DA:31,1
DA:32,1
DA:33,1
DA:42,5
DA:43,1
DA:44,1
DA:45,1
DA:46,1
DA:47,1
DA:49,1
DA:50,1
DA:52,1
DA:53,1
DA:54,1
DA:55,1
DA:56,1
DA:117,1
DA:118,1
DA:119,1
DA:120,1
DA:121,3
LF:28
LH:28
end_of_record
SF:/usr/include/c++/7/bits/basic_string.h
FN:6017,_ZSteqIcEN9__gnu_cxx11__enable_ifIXsrSt9__is_charIT_E7__valueEbE6__typeERKNSt7__cxx1112basic_stringIS3_St11char_traitsIS3_ESaIS3_EEESE_
FNDA:1,_ZSteqIcEN9__gnu_cxx11__enable_ifIXsrSt9__is_charIT_E7__valueEbE6__typeERKNSt7__cxx1112basic_stringIS3_St11char_traitsIS3_ESaIS3_EEESE_
FNF:1
FNH:1
DA:6017,1
DA:6019,1
DA:6020,1
DA:6021,1
LF:4
LH:4
end_of_record
SF:/usr/include/c++/7/bits/char_traits.h
FN:300,_ZNSt11char_traitsIcE7compareEPKcS2_m
FNDA:1,_ZNSt11char_traitsIcE7compareEPKcS2_m
FNF:1
FNH:1
DA:300,1
DA:308,1
DA:309,0
DA:310,1
LF:4
LH:3
end_of_record
SF:/usr/include/c++/7/bits/ios_base.h
FN:129,_ZStorSt13_Ios_OpenmodeS_
FNDA:43,_ZStorSt13_Ios_OpenmodeS_
FNF:1
FNH:1
DA:129,43
DA:130,43
LF:2
LH:2
end_of_record
SF:/usr/include/c++/7/iostream
DA:74,1
LF:1
LH:1
end_of_record
SF:/usr/include/gtest/gtest-message.h
FN:85,_ZN7testing7MessageD2Ev
FNDA:43,_ZN7testing7MessageD2Ev
FNF:1
FNH:1
DA:85,43
LF:1
LH:1
end_of_record
SF:/usr/include/gtest/gtest-printers.h
FN:222,_ZN16testing_internal26DefaultPrintNonContainerToItEEvRKT_PSo
FN:275,_ZN7testing8internal19FormatForComparisonINSt7__cxx1112basic_stringIcSt11char_traitsIcESaIcEEES7_E6FormatERKS7_
FN:275,_ZN7testing8internal19FormatForComparisonIttE6FormatB5cxx11ERKt
FN:275,_ZN7testing8internal19FormatForComparisonIhhE6FormatB5cxx11ERKh
FN:349,_ZN7testing8internal33FormatForComparisonFailureMessageIttEENSt7__cxx1112basic_stringIcSt11char_traitsIcESaIcEEERKT_RKT0_
FN:349,_ZN7testing8internal33FormatForComparisonFailureMessageINSt7__cxx1112basic_stringIcSt11char_traitsIcESaIcEEES7_EES7_RKT_RKT0_
FN:349,_ZN7testing8internal33FormatForComparisonFailureMessageIhhEENSt7__cxx1112basic_stringIcSt11char_traitsIcESaIcEEERKT_RKT0_
FN:436,_ZN7testing8internal14DefaultPrintToItEEvcNS0_13bool_constantILb0EEERKT_PSo
FN:454,_ZN7testing8internal7PrintToItEEvRKT_PSo
FN:565,_ZN7testing8internal7PrintToERKNSt7__cxx1112basic_stringIcSt11char_traitsIcESaIcEEEPSo
FN:698,_ZN7testing8internal16UniversalPrinterItE5PrintERKtPSo
FN:698,_ZN7testing8internal16UniversalPrinterIhE5PrintERKhPSo
FN:698,_ZN7testing8internal16UniversalPrinterINSt7__cxx1112basic_stringIcSt11char_traitsIcESaIcEEEE5PrintERKS7_PSo
FN:783,_ZN7testing8internal21UniversalTersePrinterItE5PrintERKtPSo
FN:783,_ZN7testing8internal21UniversalTersePrinterINSt7__cxx1112basic_stringIcSt11char_traitsIcESaIcEEEE5PrintERKS7_PSo
FN:783,_ZN7testing8internal21UniversalTersePrinterIhE5PrintERKhPSo
FN:852,_ZN7testing8internal14UniversalPrintIhEEvRKT_PSo
FN:852,_ZN7testing8internal14UniversalPrintINSt7__cxx1112basic_stringIcSt11char_traitsIcESaIcEEEEEvRKT_PSo
FN:852,_ZN7testing8internal14UniversalPrintItEEvRKT_PSo
FN:980,_ZN7testing13PrintToStringIhEENSt7__cxx1112basic_stringIcSt11char_traitsIcESaIcEEERKT_
FN:980,_ZN7testing13PrintToStringINSt7__cxx1112basic_stringIcSt11char_traitsIcESaIcEEEEES6_RKT_
FN:980,_ZN7testing13PrintToStringItEENSt7__cxx1112basic_stringIcSt11char_traitsIcESaIcEEERKT_
FNDA:0,_ZN16testing_internal26DefaultPrintNonContainerToItEEvRKT_PSo
FNDA:0,_ZN7testing8internal19FormatForComparisonINSt7__cxx1112basic_stringIcSt11char_traitsIcESaIcEEES7_E6FormatERKS7_
FNDA:0,_ZN7testing8internal19FormatForComparisonIttE6FormatB5cxx11ERKt
FNDA:0,_ZN7testing8internal19FormatForComparisonIhhE6FormatB5cxx11ERKh
FNDA:0,_ZN7testing8internal33FormatForComparisonFailureMessageINSt7__cxx1112basic_stringIcSt11char_traitsIcESaIcEEES7_EES7_RKT_RKT0_
FNDA:0,_ZN7testing8internal33FormatForComparisonFailureMessageIttEENSt7__cxx1112basic_stringIcSt11char_traitsIcESaIcEEERKT_RKT0_
FNDA:0,_ZN7testing8internal33FormatForComparisonFailureMessageIhhEENSt7__cxx1112basic_stringIcSt11char_traitsIcESaIcEEERKT_RKT0_
FNDA:0,_ZN7testing8internal14DefaultPrintToItEEvcNS0_13bool_constantILb0EEERKT_PSo
FNDA:0,_ZN7testing8internal7PrintToItEEvRKT_PSo
FNDA:0,_ZN7testing8internal7PrintToERKNSt7__cxx1112basic_stringIcSt11char_traitsIcESaIcEEEPSo
FNDA:0,_ZN7testing8internal16UniversalPrinterItE5PrintERKtPSo
FNDA:0,_ZN7testing8internal16UniversalPrinterIhE5PrintERKhPSo
FNDA:0,_ZN7testing8internal16UniversalPrinterINSt7__cxx1112basic_stringIcSt11char_traitsIcESaIcEEEE5PrintERKS7_PSo
FNDA:0,_ZN7testing8internal21UniversalTersePrinterINSt7__cxx1112basic_stringIcSt11char_traitsIcESaIcEEEE5PrintERKS7_PSo
FNDA:0,_ZN7testing8internal21UniversalTersePrinterItE5PrintERKtPSo
FNDA:0,_ZN7testing8internal21UniversalTersePrinterIhE5PrintERKhPSo
FNDA:0,_ZN7testing8internal14UniversalPrintItEEvRKT_PSo
FNDA:0,_ZN7testing8internal14UniversalPrintIhEEvRKT_PSo
FNDA:0,_ZN7testing8internal14UniversalPrintINSt7__cxx1112basic_stringIcSt11char_traitsIcESaIcEEEEEvRKT_PSo
FNDA:0,_ZN7testing13PrintToStringINSt7__cxx1112basic_stringIcSt11char_traitsIcESaIcEEEEES6_RKT_
FNDA:0,_ZN7testing13PrintToStringItEENSt7__cxx1112basic_stringIcSt11char_traitsIcESaIcEEERKT_
FNDA:0,_ZN7testing13PrintToStringIhEENSt7__cxx1112basic_stringIcSt11char_traitsIcESaIcEEERKT_
FNF:22
FNH:0
DA:222,0
DA:249,0
DA:250,0
DA:275,0
DA:276,0
DA:349,0
DA:351,0
DA:436,0
DA:439,0
DA:440,0
DA:454,0
DA:477,0
DA:478,0
DA:565,0
DA:566,0
DA:567,0
DA:698,0
DA:707,0
DA:708,0
DA:783,0
DA:784,0
DA:785,0
DA:852,0
DA:856,0
DA:857,0
DA:980,0
DA:981,0
DA:982,0
DA:983,0
LF:29
LH:0
end_of_record
SF:/usr/include/gtest/gtest.h
FN:256,_ZN7testing15AssertionResultD2Ev
FN:288,_ZNK7testing15AssertionResultcvbEv
FN:297,_ZNK7testing15AssertionResult7messageEv
FN:302,_ZNK7testing15AssertionResult15failure_messageEv
FN:389,_ZN7testing4Test13SetUpTestCaseEv
FN:397,_ZN7testing4Test16TearDownTestCaseEv
FN:474,_ZN7testing4Test5SetupEv
FN:972,_ZN7testing11EnvironmentC2Ev
FN:975,_ZN7testing11EnvironmentD0Ev
FN:975,_ZN7testing11EnvironmentD2Ev
FN:978,_ZN7testing11Environment5SetUpEv
FN:981,_ZN7testing11Environment8TearDownEv
FN:986,_ZN7testing11Environment5SetupEv
FN:1350,_ZN7testing24AddGlobalTestEnvironmentEPNS_11EnvironmentE
FN:1375,_ZN7testing8internal18CmpHelperEQFailureIttEENS_15AssertionResultEPKcS4_RKT_RKT0_
FN:1375,_ZN7testing8internal18CmpHelperEQFailureINSt7__cxx1112basic_stringIcSt11char_traitsIcESaIcEEES7_EENS_15AssertionResultEPKcSA_RKT_RKT0_
FN:1375,_ZN7testing8internal18CmpHelperEQFailureIhhEENS_15AssertionResultEPKcS4_RKT_RKT0_
FN:1387,_ZN7testing8internal11CmpHelperEQINSt7__cxx1112basic_stringIcSt11char_traitsIcESaIcEEES7_EENS_15AssertionResultEPKcSA_RKT_RKT0_
FN:1387,_ZN7testing8internal11CmpHelperEQIhhEENS_15AssertionResultEPKcS4_RKT_RKT0_
FN:1387,_ZN7testing8internal11CmpHelperEQIttEENS_15AssertionResultEPKcS4_RKT_RKT0_
FN:1417,_ZN7testing8internal8EqHelperILb0EE7CompareINSt7__cxx1112basic_stringIcSt11char_traitsIcESaIcEEES9_EENS_15AssertionResultEPKcSC_RKT_RKT0_
FN:1417,_ZN7testing8internal8EqHelperILb0EE7CompareIhhEENS_15AssertionResultEPKcS6_RKT_RKT0_
FN:1417,_ZN7testing8internal8EqHelperILb0EE7CompareIttEENS_15AssertionResultEPKcS6_RKT_RKT0_
FN:2232,_Z13RUN_ALL_TESTSv
FNDA:4,_ZN7testing15AssertionResultD2Ev
FNDA:4,_ZNK7testing15AssertionResultcvbEv
FNDA:0,_ZNK7testing15AssertionResult7messageEv
FNDA:0,_ZNK7testing15AssertionResult15failure_messageEv
FNDA:1,_ZN7testing4Test13SetUpTestCaseEv
FNDA:1,_ZN7testing4Test16TearDownTestCaseEv
FNDA:0,_ZN7testing4Test5SetupEv
FNDA:1,_ZN7testing11EnvironmentC2Ev
FNDA:0,_ZN7testing11EnvironmentD0Ev
FNDA:1,_ZN7testing11EnvironmentD2Ev
FNDA:0,_ZN7testing11Environment5SetUpEv
FNDA:0,_ZN7testing11Environment8TearDownEv
FNDA:0,_ZN7testing11Environment5SetupEv
FNDA:1,_ZN7testing24AddGlobalTestEnvironmentEPNS_11EnvironmentE
FNDA:0,_ZN7testing8internal18CmpHelperEQFailureINSt7__cxx1112basic_stringIcSt11char_traitsIcESaIcEEES7_EENS_15AssertionResultEPKcSA_RKT_RKT0_
FNDA:0,_ZN7testing8internal18CmpHelperEQFailureIttEENS_15AssertionResultEPKcS4_RKT_RKT0_
FNDA:0,_ZN7testing8internal18CmpHelperEQFailureIhhEENS_15AssertionResultEPKcS4_RKT_RKT0_
FNDA:1,_ZN7testing8internal11CmpHelperEQINSt7__cxx1112basic_stringIcSt11char_traitsIcESaIcEEES7_EENS_15AssertionResultEPKcSA_RKT_RKT0_
FNDA:1,_ZN7testing8internal11CmpHelperEQIttEENS_15AssertionResultEPKcS4_RKT_RKT0_
FNDA:2,_ZN7testing8internal11CmpHelperEQIhhEENS_15AssertionResultEPKcS4_RKT_RKT0_
FNDA:1,_ZN7testing8internal8EqHelperILb0EE7CompareINSt7__cxx1112basic_stringIcSt11char_traitsIcESaIcEEES9_EENS_15AssertionResultEPKcSC_RKT_RKT0_
FNDA:1,_ZN7testing8internal8EqHelperILb0EE7CompareIttEENS_15AssertionResultEPKcS6_RKT_RKT0_
FNDA:2,_ZN7testing8internal8EqHelperILb0EE7CompareIhhEENS_15AssertionResultEPKcS6_RKT_RKT0_
FNDA:1,_Z13RUN_ALL_TESTSv
FNF:24
FNH:14
DA:256,4
DA:288,4
DA:297,0
DA:298,0
DA:302,0
DA:389,1
DA:397,1
DA:474,0
DA:972,1
DA:975,1
DA:978,0
DA:981,0
DA:986,0
DA:1350,1
DA:1351,1
DA:1375,0
DA:1382,0
DA:1387,4
DA:1392,4
DA:1393,4
DA:1397,0
DA:1417,4
DA:1421,4
DA:2232,1
DA:2233,1
LF:25
LH:15
end_of_record
SF:/usr/include/gtest/internal/gtest-internal.h
FN:466,_ZN7testing8internal15TestFactoryBaseD2Ev
FN:466,_ZN7testing8internal15TestFactoryBaseD0Ev
FN:473,_ZN7testing8internal15TestFactoryBaseC2Ev
FN:482,_ZN7testing8internal15TestFactoryImplI23Message_toDictElem_TestEC2Ev
FN:482,_ZN7testing8internal15TestFactoryImplI23Message_toDictElem_TestED2Ev
FN:482,_ZN7testing8internal15TestFactoryImplI23Message_toDictElem_TestED0Ev
FN:484,_ZN7testing8internal15TestFactoryImplI23Message_toDictElem_TestE10CreateTestEv
FN:504,_ZN7testing8internal12CodeLocationD2Ev
FN:505,_ZN7testing8internal12CodeLocationC2ERKNSt7__cxx1112basic_stringIcSt11char_traitsIcESaIcEEEi
FN:940,_ZN7testing8internal15IsContainerTestItEEcl
FNDA:0,_ZN7testing8internal15TestFactoryBaseD0Ev
FNDA:1,_ZN7testing8internal15TestFactoryBaseD2Ev
FNDA:1,_ZN7testing8internal15TestFactoryBaseC2Ev
FNDA:1,_ZN7testing8internal15TestFactoryImplI23Message_toDictElem_TestED0Ev
FNDA:1,_ZN7testing8internal15TestFactoryImplI23Message_toDictElem_TestED2Ev
FNDA:1,_ZN7testing8internal15TestFactoryImplI23Message_toDictElem_TestEC2Ev
FNDA:1,_ZN7testing8internal15TestFactoryImplI23Message_toDictElem_TestE10CreateTestEv
FNDA:3,_ZN7testing8internal12CodeLocationD2Ev
FNDA:1,_ZN7testing8internal12CodeLocationC2ERKNSt7__cxx1112basic_stringIcSt11char_traitsIcESaIcEEEi
FNDA:0,_ZN7testing8internal15IsContainerTestItEEcl
FNF:10
FNH:8
DA:466,1
DA:473,1
DA:482,3
DA:484,1
DA:504,3
DA:505,1
DA:940,0
LF:7
LH:6
end_of_record
SF:/usr/include/gtest/internal/gtest-port.h
FN:1120,_ZN7testing8internal10scoped_ptrINSt7__cxx1118basic_stringstreamIcSt11char_traitsIcESaIcEEEED2Ev
FN:1120,_ZN7testing8internal10scoped_ptrINSt7__cxx1112basic_stringIcSt11char_traitsIcESaIcEEEED2Ev
FN:1123,_ZNK7testing8internal10scoped_ptrINSt7__cxx1112basic_stringIcSt11char_traitsIcESaIcEEEEptEv
FN:1124,_ZNK7testing8internal10scoped_ptrINSt7__cxx1112basic_stringIcSt11char_traitsIcESaIcEEEE3getEv
FN:1132,_ZN7testing8internal10scoped_ptrINSt7__cxx1118basic_stringstreamIcSt11char_traitsIcESaIcEEEE5resetEPS7_
FN:1132,_ZN7testing8internal10scoped_ptrINSt7__cxx1112basic_stringIcSt11char_traitsIcESaIcEEEE5resetEPS7_
FNDA:4,_ZN7testing8internal10scoped_ptrINSt7__cxx1112basic_stringIcSt11char_traitsIcESaIcEEEED2Ev
FNDA:43,_ZN7testing8internal10scoped_ptrINSt7__cxx1118basic_stringstreamIcSt11char_traitsIcESaIcEEEED2Ev
FNDA:0,_ZNK7testing8internal10scoped_ptrINSt7__cxx1112basic_stringIcSt11char_traitsIcESaIcEEEEptEv
FNDA:0,_ZNK7testing8internal10scoped_ptrINSt7__cxx1112basic_stringIcSt11char_traitsIcESaIcEEEE3getEv
FNDA:43,_ZN7testing8internal10scoped_ptrINSt7__cxx1118basic_stringstreamIcSt11char_traitsIcESaIcEEEE5resetEPS7_
FNDA:4,_ZN7testing8internal10scoped_ptrINSt7__cxx1112basic_stringIcSt11char_traitsIcESaIcEEEE5resetEPS7_
FNF:6
FNH:4
DA:1120,47
DA:1123,0
DA:1124,0
DA:1132,47
DA:1133,47
DA:1134,43
DA:1135,43
DA:1137,43
DA:1139,47
LF:9
LH:7
end_of_record
